; Function Attrs: nounwind uwtable
define ptr @l___private_Lean_Compiler_IR_FreeVars_0__Lean_IR_FreeIndices_collectArgs(ptr noundef readonly captures(none) %0, ptr noundef %1, ptr noundef %2) local_unnamed_addr #0 {
  %4 = load ptr, ptr @l___private_Lean_Compiler_IR_FreeVars_0__Lean_IR_FreeIndices_collectArgs___closed__1, align 8, !tbaa !13
  %5 = getelementptr i8, ptr %0, i64 8
  %.val.i = load i64, ptr %5, align 8, !tbaa !17
  %.mask.i = and i64 %.val.i, 9223372036854775807
  %.not.i = icmp eq i64 %.mask.i, 0
  br i1 %.not.i, label %lean_dec.exit29.i, label %lean_dec.exit.i

lean_dec.exit29.i:                                ; preds = %3
  %6 = ptrtoint ptr %1 to i64
  %7 = and i64 %6, 1
  %.not45.i = icmp eq i64 %7, 0
  br i1 %.not45.i, label %8, label %lean_dec.exit28.i

8:                                                ; preds = %lean_dec.exit29.i
  %9 = load i32, ptr %1, align 4, !tbaa !4
  %10 = icmp sgt i32 %9, 1
  br i1 %10, label %11, label %13, !prof !9

11:                                               ; preds = %8
  %12 = add nsw i32 %9, -1
  store i32 %12, ptr %1, align 4, !tbaa !4
  br label %lean_dec.exit28.i

13:                                               ; preds = %8
  %.not.i30.i = icmp eq i32 %9, 0
  br i1 %.not.i30.i, label %lean_dec.exit28.i, label %14

14:                                               ; preds = %13
  tail call void @lean_dec_ref_cold(ptr noundef nonnull %1) #3
  br label %lean_dec.exit28.i

lean_dec.exit28.i:                                ; preds = %14, %13, %11, %lean_dec.exit29.i
  %15 = ptrtoint ptr %4 to i64
  %16 = and i64 %15, 1
  %.not46.i = icmp eq i64 %16, 0
  br i1 %.not46.i, label %17, label %l___private_Lean_Compiler_IR_FreeVars_0__Lean_IR_FreeIndices_collectArray___rarg.exit

17:                                               ; preds = %lean_dec.exit28.i
  %18 = load i32, ptr %4, align 4, !tbaa !4
  %19 = icmp sgt i32 %18, 1
  br i1 %19, label %20, label %22, !prof !9

20:                                               ; preds = %17
  %21 = add nsw i32 %18, -1
  store i32 %21, ptr %4, align 4, !tbaa !4
  br label %l___private_Lean_Compiler_IR_FreeVars_0__Lean_IR_FreeIndices_collectArray___rarg.exit

22:                                               ; preds = %17
  %.not.i32.i = icmp eq i32 %18, 0
  br i1 %.not.i32.i, label %l___private_Lean_Compiler_IR_FreeVars_0__Lean_IR_FreeIndices_collectArray___rarg.exit, label %23

23:                                               ; preds = %22
  tail call void @lean_dec_ref_cold(ptr noundef nonnull %4) #3
  br label %l___private_Lean_Compiler_IR_FreeVars_0__Lean_IR_FreeIndices_collectArray___rarg.exit

lean_dec.exit.i:                                  ; preds = %3
  %24 = tail call ptr @l_Array_foldlMUnsafe_fold___at___private_Lean_Compiler_IR_FreeVars_0__Lean_IR_FreeIndices_collectArray___spec__1___rarg(ptr noundef %4, ptr noundef %1, ptr noundef nonnull readonly %0, i64 noundef 0, i64 noundef %.mask.i, ptr noundef %2)
  br label %l___private_Lean_Compiler_IR_FreeVars_0__Lean_IR_FreeIndices_collectArray___rarg.exit

l___private_Lean_Compiler_IR_FreeVars_0__Lean_IR_FreeIndices_collectArray___rarg.exit: ; preds = %lean_dec.exit28.i, %20, %22, %23, %lean_dec.exit.i
  %.0.i = phi ptr [ %24, %lean_dec.exit.i ], [ %2, %23 ], [ %2, %22 ], [ %2, %20 ], [ %2, %lean_dec.exit28.i ]
  ret ptr %.0.i
}